; Function Attrs: mustprogress uwtable
define hidden noundef ptr @_ZN11ast_manager21mk_uninterpreted_sortERK6symboljPK9parameter(ptr noundef nonnull readonly align 8 captures(none) dereferenceable(976) %0, ptr noundef nonnull readonly align 8 captures(none) dereferenceable(8) %1, i32 noundef %2, ptr noundef %3) local_unnamed_addr #7 align 2 {
  %5 = getelementptr inbounds nuw i8, ptr %0, i64 704
  %6 = load ptr, ptr %5, align 8, !tbaa !33
  %7 = icmp eq ptr %6, null
  br i1 %7, label %_ZNK11ast_manager20get_user_sort_pluginEv.exit, label %_ZNK6vectorIP11decl_pluginLb0EjE3getEjRKS1_.exit.i.i

_ZNK6vectorIP11decl_pluginLb0EjE3getEjRKS1_.exit.i.i: ; preds = %4
  %8 = getelementptr inbounds i8, ptr %6, i64 -4
  %9 = load i32, ptr %8, align 4, !tbaa !24
  %.not.i.i.i = icmp ugt i32 %9, 4
  br i1 %.not.i.i.i, label %_ZNK6vectorIP11decl_pluginLb0EjE3getEjRKS1_.exit.then.i.i, label %_ZNK11ast_manager20get_user_sort_pluginEv.exit

_ZNK6vectorIP11decl_pluginLb0EjE3getEjRKS1_.exit.then.i.i: ; preds = %_ZNK6vectorIP11decl_pluginLb0EjE3getEjRKS1_.exit.i.i
  %10 = getelementptr inbounds nuw i8, ptr %6, i64 32
  %.then.val.i.i = load ptr, ptr %10, align 8, !tbaa !37
  br label %_ZNK11ast_manager20get_user_sort_pluginEv.exit

_ZNK11ast_manager20get_user_sort_pluginEv.exit:   ; preds = %4, %_ZNK6vectorIP11decl_pluginLb0EjE3getEjRKS1_.exit.i.i, %_ZNK6vectorIP11decl_pluginLb0EjE3getEjRKS1_.exit.then.i.i
  %11 = phi ptr [ %.then.val.i.i, %_ZNK6vectorIP11decl_pluginLb0EjE3getEjRKS1_.exit.then.i.i ], [ null, %_ZNK6vectorIP11decl_pluginLb0EjE3getEjRKS1_.exit.i.i ], [ null, %4 ]
  %.sroa.0.0.copyload = load ptr, ptr %1, align 8, !tbaa !50
  %12 = tail call noundef i32 @_ZN16user_sort_plugin13register_nameE6symbol(ptr noundef nonnull align 8 dereferenceable(56) %11, ptr %.sroa.0.0.copyload)
  %13 = load ptr, ptr %11, align 8, !tbaa !39
  %14 = getelementptr inbounds nuw i8, ptr %13, i64 48
  %15 = load ptr, ptr %14, align 8
  %16 = tail call noundef ptr %15(ptr noundef nonnull align 8 dereferenceable(56) %11, i32 noundef %12, i32 noundef %2, ptr noundef %3)
  ret ptr %16
}